target datalayout = "e-m:e-p270:32:32-p271:32:32-p272:64:64-i64:64-i128:128-f80:128-n8:16:32:64-S128"
target triple = "x86_64-pc-linux-gnu"

%struct.Vec_Int_t_ = type { i32, i32, ptr }
%struct.Vec_Wec_t_ = type { i32, i32, ptr }

@.str.13 = private unnamed_addr constant [31 x i8] c"Polynomial with %d monomials:\0A\00", align 1

; Function Attrs: nounwind uwtable
define internal i32 @Abc_AbsInt(i32 noundef %0) #0 {
  %2 = alloca i32, align 4
  store i32 %0, ptr %2, align 4
  %3 = load i32, ptr %2, align 4
  %4 = icmp slt i32 %3, 0
  br i1 %4, label %5, label %8

5:                                                ; preds = %1
  %6 = load i32, ptr %2, align 4
  %7 = sub nsw i32 0, %6
  br label %10

8:                                                ; preds = %1
  %9 = load i32, ptr %2, align 4
  br label %10

10:                                               ; preds = %8, %5
  %11 = phi i32 [ %7, %5 ], [ %9, %8 ]
  ret i32 %11
}

; Function Attrs: nounwind uwtable
define internal i32 @Vec_IntEntry(ptr noundef %0, i32 noundef %1) #0 {
  %3 = alloca ptr, align 8
  %4 = alloca i32, align 4
  store ptr %0, ptr %3, align 8
  store i32 %1, ptr %4, align 4
  %5 = load ptr, ptr %3, align 8
  %6 = getelementptr inbounds %struct.Vec_Int_t_, ptr %5, i32 0, i32 2
  %7 = load ptr, ptr %6, align 8
  %8 = load i32, ptr %4, align 4
  %9 = sext i32 %8 to i64
  %10 = getelementptr inbounds i32, ptr %7, i64 %9
  %11 = load i32, ptr %10, align 4
  ret i32 %11
}

; Function Attrs: nounwind uwtable
define internal ptr @Vec_WecEntry(ptr noundef %0, i32 noundef %1) #0 {
  %3 = alloca ptr, align 8
  %4 = alloca i32, align 4
  store ptr %0, ptr %3, align 8
  store i32 %1, ptr %4, align 4
  %5 = load ptr, ptr %3, align 8
  %6 = getelementptr inbounds %struct.Vec_Wec_t_, ptr %5, i32 0, i32 2
  %7 = load ptr, ptr %6, align 8
  %8 = load i32, ptr %4, align 4
  %9 = sext i32 %8 to i64
  %10 = getelementptr inbounds %struct.Vec_Int_t_, ptr %7, i64 %9
  ret ptr %10
}

; Function Attrs: nounwind uwtable
define internal i32 @Vec_WecSize(ptr noundef %0) #0 {
  %2 = alloca ptr, align 8
  store ptr %0, ptr %2, align 8
  %3 = load ptr, ptr %2, align 8
  %4 = getelementptr inbounds %struct.Vec_Wec_t_, ptr %3, i32 0, i32 1
  %5 = load i32, ptr %4, align 4
  ret i32 %5
}

; Function Attrs: nounwind uwtable
define void @Gia_PolynPrint(ptr noundef %0) #0 {
  %2 = alloca ptr, align 8
  %3 = alloca ptr, align 8
  %4 = alloca ptr, align 8
  %5 = alloca i32, align 4
  %6 = alloca i32, align 4
  store ptr %0, ptr %2, align 8
  store i32 -1, ptr %6, align 4
  %7 = load ptr, ptr %2, align 8
  %8 = call i32 @Vec_WecSize(ptr noundef %7)
  %9 = sdiv i32 %8, 2
  %10 = call i32 (ptr, ...) @printf(ptr noundef @.str.13, i32 noundef %9)
  store i32 0, ptr %5, align 4
  br label %11

11:                                               ; preds = %34, %1
  %12 = load i32, ptr %5, align 4
  %13 = load ptr, ptr %2, align 8
  %14 = call i32 @Vec_WecSize(ptr noundef %13)
  %15 = sdiv i32 %14, 2
  %16 = icmp slt i32 %12, %15
  br i1 %16, label %17, label %37

17:                                               ; preds = %11
  %18 = load ptr, ptr %2, align 8
  %19 = load i32, ptr %5, align 4
  %20 = mul nsw i32 2, %19
  %21 = add nsw i32 %20, 0
  %22 = call ptr @Vec_WecEntry(ptr noundef %18, i32 noundef %21)
  store ptr %22, ptr %3, align 8
  %23 = load ptr, ptr %2, align 8
  %24 = load i32, ptr %5, align 4
  %25 = mul nsw i32 2, %24
  %26 = add nsw i32 %25, 1
  %27 = call ptr @Vec_WecEntry(ptr noundef %23, i32 noundef %26)
  store ptr %27, ptr %4, align 8
  %28 = load ptr, ptr %3, align 8
  %29 = load ptr, ptr %4, align 8
  %30 = load i32, ptr %6, align 4
  call void @Gia_PolynPrintMono(ptr noundef %28, ptr noundef %29, i32 noundef %30)
  %31 = load ptr, ptr %3, align 8
  %32 = call i32 @Vec_IntEntry(ptr noundef %31, i32 noundef 0)
  %33 = call i32 @Abc_AbsInt(i32 noundef %32)
  store i32 %33, ptr %6, align 4
  br label %34

34:                                               ; preds = %17
  %35 = load i32, ptr %5, align 4
  %36 = add nsw i32 %35, 1
  store i32 %36, ptr %5, align 4
  br label %11, !llvm.loop !19

37:                                               ; preds = %11
  ret void
}