; Function Attrs: nofree nounwind uwtable
define void @Gia_PolynPrint(ptr noundef readonly captures(none) %0) local_unnamed_addr #7 {
  %2 = getelementptr i8, ptr %0, i64 4
  %.val12 = load i32, ptr %2, align 4
  %3 = sdiv i32 %.val12, 2
  %4 = tail call i32 (ptr, ...) @printf(ptr noundef nonnull dereferenceable(1) @.str.13, i32 noundef %3)
  %.val16 = load i32, ptr %2, align 4
  %5 = icmp sgt i32 %.val16, 1
  br i1 %5, label %.lr.ph, label %._crit_edge

.lr.ph:                                           ; preds = %1
  %6 = getelementptr i8, ptr %0, i64 8
  br label %7

7:                                                ; preds = %.lr.ph, %7
  %indvars.iv = phi i64 [ 0, %.lr.ph ], [ %indvars.iv.next, %7 ]
  %.018 = phi i32 [ -1, %.lr.ph ], [ %14, %7 ]
  %8 = shl nuw nsw i64 %indvars.iv, 1
  %.val14 = load ptr, ptr %6, align 8
  %9 = getelementptr inbounds nuw %struct.Vec_Int_t_, ptr %.val14, i64 %8
  %10 = or disjoint i64 %8, 1
  %11 = getelementptr inbounds nuw %struct.Vec_Int_t_, ptr %.val14, i64 %10
  tail call void @Gia_PolynPrintMono(ptr noundef %9, ptr noundef nonnull %11, i32 noundef %.018)
  %12 = getelementptr i8, ptr %9, i64 8
  %.val15 = load ptr, ptr %12, align 8
  %13 = load i32, ptr %.val15, align 4
  %14 = tail call range(i32 0, -2147483648) i32 @llvm.abs.i32(i32 %13, i1 true)
  %indvars.iv.next = add nuw nsw i64 %indvars.iv, 1
  %.val = load i32, ptr %2, align 4
  %15 = sdiv i32 %.val, 2
  %16 = sext i32 %15 to i64
  %17 = icmp slt i64 %indvars.iv.next, %16
  br i1 %17, label %7, label %._crit_edge, !llvm.loop !21

._crit_edge:                                      ; preds = %7, %1
  ret void
}